; Function Attrs: mustprogress nofree norecurse nosync nounwind willreturn memory(none) uwtable
define zeroext i8 @lv_color32_luminance(i32 %0) local_unnamed_addr #1 {
  %.sroa.2.0.extract.shift = lshr i32 %0, 8
  %.sroa.3.0.extract.shift = lshr i32 %0, 16
  %2 = and i32 %.sroa.3.0.extract.shift, 255
  %3 = mul nuw nsw i32 %2, 77
  %4 = and i32 %.sroa.2.0.extract.shift, 255
  %5 = mul nuw nsw i32 %4, 151
  %6 = and i32 %0, 255
  %7 = mul nuw nsw i32 %6, 28
  %8 = add nuw nsw i32 %5, %7
  %9 = add nuw nsw i32 %8, %3
  %10 = lshr i32 %9, 8
  %11 = trunc nuw i32 %10 to i8
  ret i8 %11
}